target datalayout = "e-m:e-p270:32:32-p271:32:32-p272:64:64-i64:64-i128:128-f80:128-n8:16:32:64-S128"
target triple = "x86_64-pc-linux-gnu"

%struct.Int128_ = type { i64, i64 }

; Function Attrs: nounwind uwtable
define dso_local { i64, i64 } @i128_shl64(i64 %0, i64 %1, i64 noundef %2) #0 {
  %4 = alloca %struct.Int128_, align 8
  %5 = alloca %struct.Int128_, align 8
  %6 = alloca i64, align 8
  %7 = getelementptr inbounds { i64, i64 }, ptr %5, i32 0, i32 0
  store i64 %0, ptr %7, align 8
  %8 = getelementptr inbounds { i64, i64 }, ptr %5, i32 0, i32 1
  store i64 %1, ptr %8, align 8
  store i64 %2, ptr %6, align 8
  %9 = load i64, ptr %6, align 8
  %10 = icmp eq i64 %9, 0
  br i1 %10, label %11, label %12

11:                                               ; preds = %3
  call void @llvm.memcpy.p0.p0.i64(ptr align 8 %4, ptr align 8 %5, i64 16, i1 false)
  br label %54

12:                                               ; preds = %3
  %13 = load i64, ptr %6, align 8
  %14 = icmp ugt i64 %13, 127
  br i1 %14, label %15, label %18

15:                                               ; preds = %12
  %16 = getelementptr inbounds %struct.Int128_, ptr %4, i32 0, i32 0
  store i64 0, ptr %16, align 8
  %17 = getelementptr inbounds %struct.Int128_, ptr %4, i32 0, i32 1
  store i64 0, ptr %17, align 8
  br label %54

18:                                               ; preds = %12
  %19 = load i64, ptr %6, align 8
  %20 = icmp eq i64 %19, 64
  br i1 %20, label %21, label %26

21:                                               ; preds = %18
  %22 = getelementptr inbounds %struct.Int128_, ptr %4, i32 0, i32 0
  %23 = getelementptr inbounds %struct.Int128_, ptr %5, i32 0, i32 1
  %24 = load i64, ptr %23, align 8
  store i64 %24, ptr %22, align 8
  %25 = getelementptr inbounds %struct.Int128_, ptr %4, i32 0, i32 1
  store i64 0, ptr %25, align 8
  br label %54

26:                                               ; preds = %18
  %27 = load i64, ptr %6, align 8
  %28 = icmp ugt i64 %27, 64
  br i1 %28, label %29, label %37

29:                                               ; preds = %26
  %30 = getelementptr inbounds %struct.Int128_, ptr %4, i32 0, i32 0
  %31 = getelementptr inbounds %struct.Int128_, ptr %5, i32 0, i32 1
  %32 = load i64, ptr %31, align 8
  %33 = load i64, ptr %6, align 8
  %34 = sub i64 %33, 64
  %35 = shl i64 %32, %34
  store i64 %35, ptr %30, align 8
  %36 = getelementptr inbounds %struct.Int128_, ptr %4, i32 0, i32 1
  store i64 0, ptr %36, align 8
  br label %54

37:                                               ; preds = %26
  %38 = getelementptr inbounds %struct.Int128_, ptr %4, i32 0, i32 0
  %39 = getelementptr inbounds %struct.Int128_, ptr %5, i32 0, i32 0
  %40 = load i64, ptr %39, align 8
  %41 = load i64, ptr %6, align 8
  %42 = shl i64 %40, %41
  %43 = getelementptr inbounds %struct.Int128_, ptr %5, i32 0, i32 1
  %44 = load i64, ptr %43, align 8
  %45 = load i64, ptr %6, align 8
  %46 = sub i64 64, %45
  %47 = lshr i64 %44, %46
  %48 = or i64 %42, %47
  store i64 %48, ptr %38, align 8
  %49 = getelementptr inbounds %struct.Int128_, ptr %4, i32 0, i32 1
  %50 = getelementptr inbounds %struct.Int128_, ptr %5, i32 0, i32 1
  %51 = load i64, ptr %50, align 8
  %52 = load i64, ptr %6, align 8
  %53 = shl i64 %51, %52
  store i64 %53, ptr %49, align 8
  br label %54

54:                                               ; preds = %37, %29, %21, %15, %11
  %55 = load { i64, i64 }, ptr %4, align 8
  ret { i64, i64 } %55
}